; Function Attrs: mustprogress nofree norecurse nosync nounwind willreturn memory(argmem: readwrite, inaccessiblemem: readwrite) uwtable
define void @_ZNK6icu_776number17FractionPrecision21withSignificantDigitsEii23UNumberRoundingPriority(ptr dead_on_unwind noalias writable writeonly sret(%"class.icu_77::number::Precision") align 8 captures(none) initializes((0, 4), (8, 12), (24, 28)) %0, ptr noundef nonnull readonly align 8 captures(none) dereferenceable(28) %1, i32 noundef %2, i32 noundef %3, i32 noundef %4) local_unnamed_addr #16 align 2 {
  %6 = load i32, ptr %1, align 8, !tbaa !27
  %7 = icmp eq i32 %6, 9
  br i1 %7, label %8, label %9

8:                                                ; preds = %5
  tail call void @llvm.memcpy.p0.p0.i64(ptr noundef nonnull align 8 dereferenceable(32) %0, ptr noundef nonnull align 8 dereferenceable(32) %1, i64 32, i1 false)
  br label %24

9:                                                ; preds = %5
  %10 = icmp sgt i32 %2, 0
  br i1 %10, label %11, label %21

11:                                               ; preds = %9
  %12 = icmp sge i32 %3, %2
  %13 = icmp slt i32 %3, 1000
  %or.cond = and i1 %12, %13
  br i1 %or.cond, label %14, label %21

14:                                               ; preds = %11
  tail call void @llvm.experimental.noalias.scope.decl(metadata !65)
  %15 = getelementptr inbounds nuw i8, ptr %1, i64 8
  %16 = load i32, ptr %15, align 8, !noalias !65
  %.sroa.8.0..sroa_idx.i = getelementptr inbounds nuw i8, ptr %1, i64 21
  %.sroa.9.0..sroa_idx.i = getelementptr inbounds nuw i8, ptr %0, i64 21
  tail call void @llvm.memcpy.p0.p0.i64(ptr noundef nonnull align 1 dereferenceable(3) %.sroa.9.0..sroa_idx.i, ptr noundef nonnull readonly align 1 dereferenceable(3) %.sroa.8.0..sroa_idx.i, i64 3, i1 false)
  %17 = trunc i32 %2 to i16
  %18 = trunc i32 %3 to i16
  store i32 4, ptr %0, align 8, !tbaa !27, !alias.scope !65
  %19 = getelementptr inbounds nuw i8, ptr %0, i64 8
  store i32 %16, ptr %19, align 8, !alias.scope !65
  %.sroa.5.0..sroa_idx.i = getelementptr inbounds nuw i8, ptr %0, i64 12
  store i16 %17, ptr %.sroa.5.0..sroa_idx.i, align 4, !alias.scope !65
  %.sroa.6.0..sroa_idx.i = getelementptr inbounds nuw i8, ptr %0, i64 14
  store i16 %18, ptr %.sroa.6.0..sroa_idx.i, align 2, !alias.scope !65
  %.sroa.7.0..sroa_idx.i = getelementptr inbounds nuw i8, ptr %0, i64 16
  store i32 %4, ptr %.sroa.7.0..sroa_idx.i, align 8, !alias.scope !65
  %.sroa.814.0..sroa_idx.i = getelementptr inbounds nuw i8, ptr %0, i64 20
  store i8 0, ptr %.sroa.814.0..sroa_idx.i, align 4, !alias.scope !65
  %20 = getelementptr inbounds nuw i8, ptr %0, i64 24
  store i32 0, ptr %20, align 8, !tbaa !31, !alias.scope !65
  br label %24

21:                                               ; preds = %11, %9
  store i32 9, ptr %0, align 8, !tbaa !27
  %22 = getelementptr inbounds nuw i8, ptr %0, i64 24
  store i32 0, ptr %22, align 8, !tbaa !31
  %23 = getelementptr inbounds nuw i8, ptr %0, i64 8
  store i32 65810, ptr %23, align 8, !tbaa !17
  br label %24

24:                                               ; preds = %21, %14, %8
  ret void
}